; ModuleID = '31/209.c'
source_filename = "31/209.c"
target datalayout = "e-m:e-p270:32:32-p271:32:32-p272:64:64-i64:64-f80:128-n8:16:32:64-S128"
target triple = "x86_64-pc-linux-gnu"

%struct.student = type { [1000 x i8], %struct.student*, %struct.student* }

@.str = private unnamed_addr constant [4 x i8] c"end\00", align 1

; Function Attrs: noinline nounwind uwtable
define dso_local void @main() #0 {
  %1 = alloca %struct.student*, align 8
  %2 = alloca %struct.student*, align 8
  %3 = alloca %struct.student*, align 8
  %4 = alloca i32, align 4
  store i32 1016, i32* %4, align 4
  %5 = load i32, i32* %4, align 4
  %6 = sext i32 %5 to i64
  %7 = call noalias i8* @malloc(i64 %6) #4
  %8 = bitcast i8* %7 to %struct.student*
  store %struct.student* %8, %struct.student** %1, align 8
  %9 = load %struct.student*, %struct.student** %1, align 8
  store %struct.student* %9, %struct.student** %3, align 8
  %10 = load %struct.student*, %struct.student** %3, align 8
  %11 = getelementptr inbounds %struct.student, %struct.student* %10, i32 0, i32 1
  store %struct.student* null, %struct.student** %11, align 8
  %12 = load %struct.student*, %struct.student** %3, align 8
  %13 = getelementptr inbounds %struct.student, %struct.student* %12, i32 0, i32 2
  store %struct.student* null, %struct.student** %13, align 8
  br label %14

14:                                               ; preds = %26, %0
  %15 = load %struct.student*, %struct.student** %3, align 8
  %16 = getelementptr inbounds %struct.student, %struct.student* %15, i32 0, i32 0
  %17 = getelementptr inbounds [1000 x i8], [1000 x i8]* %16, i64 0, i64 0
  %18 = call i32 (i8*, ...) bitcast (i32 (...)* @gets to i32 (i8*, ...)*)(i8* %17)
  %19 = load %struct.student*, %struct.student** %3, align 8
  %20 = getelementptr inbounds %struct.student, %struct.student* %19, i32 0, i32 0
  %21 = getelementptr inbounds [1000 x i8], [1000 x i8]* %20, i64 0, i64 0
  %22 = call i32 @strcmp(i8* %21, i8* getelementptr inbounds ([4 x i8], [4 x i8]* @.str, i64 0, i64 0)) #5
  %23 = icmp eq i32 %22, 0
  br i1 %23, label %24, label %26

24:                                               ; preds = %14
  %25 = load %struct.student*, %struct.student** %3, align 8
  store %struct.student* %25, %struct.student** %2, align 8
  br label %45

26:                                               ; preds = %14
  %27 = load i32, i32* %4, align 4
  %28 = sext i32 %27 to i64
  %29 = call noalias i8* @malloc(i64 %28) #4
  %30 = bitcast i8* %29 to %struct.student*
  %31 = load %struct.student*, %struct.student** %3, align 8
  %32 = getelementptr inbounds %struct.student, %struct.student* %31, i32 0, i32 2
  store %struct.student* %30, %struct.student** %32, align 8
  %33 = load %struct.student*, %struct.student** %3, align 8
  %34 = load %struct.student*, %struct.student** %3, align 8
  %35 = getelementptr inbounds %struct.student, %struct.student* %34, i32 0, i32 2
  %36 = load %struct.student*, %struct.student** %35, align 8
  %37 = getelementptr inbounds %struct.student, %struct.student* %36, i32 0, i32 1
  store %struct.student* %33, %struct.student** %37, align 8
  %38 = load %struct.student*, %struct.student** %3, align 8
  %39 = getelementptr inbounds %struct.student, %struct.student* %38, i32 0, i32 2
  %40 = load %struct.student*, %struct.student** %39, align 8
  %41 = getelementptr inbounds %struct.student, %struct.student* %40, i32 0, i32 2
  store %struct.student* null, %struct.student** %41, align 8
  %42 = load %struct.student*, %struct.student** %3, align 8
  %43 = getelementptr inbounds %struct.student, %struct.student* %42, i32 0, i32 2
  %44 = load %struct.student*, %struct.student** %43, align 8
  store %struct.student* %44, %struct.student** %3, align 8
  br label %14

45:                                               ; preds = %24
  %46 = load %struct.student*, %struct.student** %2, align 8
  store %struct.student* %46, %struct.student** %3, align 8
  br label %47

47:                                               ; preds = %55, %45
  %48 = load %struct.student*, %struct.student** %3, align 8
  %49 = getelementptr inbounds %struct.student, %struct.student* %48, i32 0, i32 1
  %50 = load %struct.student*, %struct.student** %49, align 8
  %51 = icmp ne %struct.student* %50, null
  br i1 %51, label %55, label %52

52:                                               ; preds = %47
  %53 = load %struct.student*, %struct.student** %3, align 8
  %54 = bitcast %struct.student* %53 to i8*
  call void @free(i8* %54) #4
  br label %69

55:                                               ; preds = %47
  %56 = load %struct.student*, %struct.student** %3, align 8
  %57 = getelementptr inbounds %struct.student, %struct.student* %56, i32 0, i32 1
  %58 = load %struct.student*, %struct.student** %57, align 8
  %59 = getelementptr inbounds %struct.student, %struct.student* %58, i32 0, i32 0
  %60 = getelementptr inbounds [1000 x i8], [1000 x i8]* %59, i64 0, i64 0
  %61 = call i32 @puts(i8* %60)
  %62 = load %struct.student*, %struct.student** %3, align 8
  %63 = getelementptr inbounds %struct.student, %struct.student* %62, i32 0, i32 1
  %64 = load %struct.student*, %struct.student** %63, align 8
  store %struct.student* %64, %struct.student** %3, align 8
  %65 = load %struct.student*, %struct.student** %3, align 8
  %66 = getelementptr inbounds %struct.student, %struct.student* %65, i32 0, i32 2
  %67 = load %struct.student*, %struct.student** %66, align 8
  %68 = bitcast %struct.student* %67 to i8*
  call void @free(i8* %68) #4
  br label %47

69:                                               ; preds = %52
  ret void
}

; Function Attrs: nounwind
declare dso_local noalias i8* @malloc(i64) #1

declare dso_local i32 @gets(...) #2

; Function Attrs: nounwind readonly
declare dso_local i32 @strcmp(i8*, i8*) #3

; Function Attrs: nounwind
declare dso_local void @free(i8*) #1

declare dso_local i32 @puts(i8*) #2


!llvm.module.flags = !{!0}
!llvm.ident = !{!1}

!0 = !{i32 1, !"wchar_size", i32 4}
!1 = !{!"clang version 10.0.0-4ubuntu1 "}
